; Function Attrs: nounwind uwtable
define internal ptr @getargs_z_star(ptr readnone captures(none) %0, ptr noundef %1) #0 {
  %3 = alloca %struct.Py_buffer, align 8
  call void @llvm.lifetime.start.p0(i64 80, ptr nonnull %3) #7
  %4 = call i32 (ptr, ptr, ...) @PyArg_ParseTuple(ptr noundef %1, ptr noundef nonnull @.str.108, ptr noundef nonnull %3) #7
  %.not = icmp eq i32 %4, 0
  br i1 %.not, label %16, label %5

5:                                                ; preds = %2
  %6 = load ptr, ptr %3, align 8, !tbaa !31
  %.not5 = icmp eq ptr %6, null
  br i1 %.not5, label %11, label %7

7:                                                ; preds = %5
  %8 = getelementptr inbounds nuw i8, ptr %3, i64 16
  %9 = load i64, ptr %8, align 8, !tbaa !34
  %10 = call ptr @PyBytes_FromStringAndSize(ptr noundef nonnull %6, i64 noundef %9) #7
  br label %_Py_NewRef.exit

11:                                               ; preds = %5
  %12 = load i32, ptr @_Py_NoneStruct, align 8, !tbaa !3
  %13 = icmp slt i32 %12, 0
  br i1 %13, label %_Py_NewRef.exit, label %14

14:                                               ; preds = %11
  %15 = add nuw i32 %12, 1
  store i32 %15, ptr @_Py_NoneStruct, align 8, !tbaa !3
  br label %_Py_NewRef.exit

_Py_NewRef.exit:                                  ; preds = %14, %11, %7
  %.0 = phi ptr [ %10, %7 ], [ @_Py_NoneStruct, %11 ], [ @_Py_NoneStruct, %14 ]
  call void @PyBuffer_Release(ptr noundef nonnull %3) #7
  br label %16

16:                                               ; preds = %2, %_Py_NewRef.exit
  %.03 = phi ptr [ %.0, %_Py_NewRef.exit ], [ null, %2 ]
  call void @llvm.lifetime.end.p0(i64 80, ptr nonnull %3) #7
  ret ptr %.03
}